target datalayout = "e-m:e-p270:32:32-p271:32:32-p272:64:64-i64:64-i128:128-f80:128-n8:16:32:64-S128"
target triple = "x86_64-pc-linux-gnu"

%class.ShotValue = type <{ %class.Value, %"class.vcg::Shot", [4 x i8] }>
%class.Value = type { ptr }
%"class.vcg::Shot" = type { %"class.vcg::Camera", %"class.vcg::Shot<float>::ReferenceFrame" }
%"class.vcg::Camera" = type { float, %"class.vcg::Point2", %"class.vcg::Point2.0", %"class.vcg::Point2.0", %"class.vcg::Point2.0", %"struct.std::array.1", i32 }
%"class.vcg::Point2" = type { [2 x i32] }
%"class.vcg::Point2.0" = type { [2 x float] }
%"struct.std::array.1" = type { [4 x float] }
%"class.vcg::Shot<float>::ReferenceFrame" = type { %"class.vcg::Matrix44", %"class.vcg::Point3" }
%"class.vcg::Matrix44" = type { %"struct.std::array" }
%"struct.std::array" = type { [16 x float] }
%"class.vcg::Point3" = type { [3 x float] }

; Function Attrs: mustprogress nounwind uwtable
define linkonce_odr void @_ZN3vcg8Matrix44IfED2Ev(ptr noundef nonnull align 4 dereferenceable(64) %0) unnamed_addr #0 comdat align 2 {
  %2 = alloca ptr, align 8
  store ptr %0, ptr %2, align 8
  ret void
}

; Function Attrs: mustprogress nounwind uwtable
define linkonce_odr void @_ZN3vcg4ShotIfNS_8Matrix44IfEEE14ReferenceFrameD2Ev(ptr noundef nonnull align 4 dereferenceable(76) %0) unnamed_addr #0 comdat align 2 {
  %2 = alloca ptr, align 8
  store ptr %0, ptr %2, align 8
  %3 = load ptr, ptr %2, align 8
  %4 = getelementptr inbounds %"class.vcg::Shot<float>::ReferenceFrame", ptr %3, i32 0, i32 0
  call void @_ZN3vcg8Matrix44IfED2Ev(ptr noundef nonnull align 4 dereferenceable(64) %4) #5
  ret void
}

; Function Attrs: mustprogress nounwind uwtable
define linkonce_odr void @_ZN3vcg4ShotIfNS_8Matrix44IfEEED2Ev(ptr noundef nonnull align 4 dereferenceable(132) %0) unnamed_addr #0 comdat align 2 {
  %2 = alloca ptr, align 8
  store ptr %0, ptr %2, align 8
  %3 = load ptr, ptr %2, align 8
  %4 = getelementptr inbounds %"class.vcg::Shot", ptr %3, i32 0, i32 1
  call void @_ZN3vcg4ShotIfNS_8Matrix44IfEEE14ReferenceFrameD2Ev(ptr noundef nonnull align 4 dereferenceable(76) %4) #5
  ret void
}

; Function Attrs: mustprogress uwtable
define void @_ZN9ShotValue3setERK5Value(ptr noundef nonnull align 8 dereferenceable(140) %0, ptr noundef nonnull align 8 dereferenceable(8) %1) unnamed_addr #1 align 2 {
  %3 = alloca ptr, align 8
  %4 = alloca ptr, align 8
  %5 = alloca %"class.vcg::Shot", align 4
  store ptr %0, ptr %3, align 8
  store ptr %1, ptr %4, align 8
  %6 = load ptr, ptr %3, align 8
  %7 = load ptr, ptr %4, align 8
  %8 = load ptr, ptr %7, align 8
  %9 = getelementptr inbounds ptr, ptr %8, i64 8
  %10 = load ptr, ptr %9, align 8
  call void %10(ptr dead_on_unwind writable sret(%"class.vcg::Shot") align 4 %5, ptr noundef nonnull align 8 dereferenceable(8) %7)
  %11 = getelementptr inbounds %class.ShotValue, ptr %6, i32 0, i32 1
  call void @llvm.memcpy.p0.p0.i64(ptr align 8 %11, ptr align 4 %5, i64 132, i1 false)
  call void @_ZN3vcg4ShotIfNS_8Matrix44IfEEED2Ev(ptr noundef nonnull align 4 dereferenceable(132) %5) #5
  ret void
}